; Function Attrs: mustprogress nofree norecurse nosync nounwind willreturn memory(read, inaccessiblemem: none) uwtable
define i16 @_ZN7Imf_3_411floatToHalfEf(float noundef %0) local_unnamed_addr #3 personality ptr @__gxx_personality_v0 {
  %2 = tail call float @llvm.fabs.f32(float %0)
  %3 = fcmp ueq float %2, 0x7FF0000000000000
  br i1 %3, label %13, label %4

4:                                                ; preds = %1
  %5 = load ptr, ptr @imath_half_to_float_table, align 8, !tbaa !3
  %6 = getelementptr inbounds nuw i8, ptr %5, i64 126972
  %7 = load float, ptr %6, align 4, !tbaa !8
  %8 = fcmp ogt float %0, %7
  br i1 %8, label %_ZN9Imath_3_24halfC2Ef.exit, label %9

9:                                                ; preds = %4
  %10 = getelementptr inbounds nuw i8, ptr %5, i64 258044
  %11 = load float, ptr %10, align 4, !tbaa !8
  %12 = fcmp olt float %0, %11
  br i1 %12, label %_ZN9Imath_3_24halfC2Ef.exit, label %13

13:                                               ; preds = %9, %1
  %14 = bitcast float %0 to i32
  %15 = bitcast float %2 to i32
  %16 = lshr i32 %14, 16
  %17 = trunc nuw i32 %16 to i16
  %18 = and i16 %17, -32768
  %19 = icmp samesign ugt i32 %15, 947912703
  br i1 %19, label %20, label %46

20:                                               ; preds = %13
  %21 = icmp samesign ugt i32 %15, 2139095039
  br i1 %21, label %22, label %33, !prof !9

22:                                               ; preds = %20
  %23 = or disjoint i16 %18, 31744
  %24 = icmp eq i32 %15, 2139095040
  br i1 %24, label %_ZN9Imath_3_24halfC2Ef.exit, label %25

25:                                               ; preds = %22
  %26 = lshr i32 %15, 13
  %27 = and i32 %26, 1023
  %28 = icmp eq i32 %27, 0
  %29 = zext i1 %28 to i16
  %30 = trunc nuw nsw i32 %27 to i16
  %31 = or i16 %30, %29
  %32 = or disjoint i16 %31, %23
  br label %_ZN9Imath_3_24halfC2Ef.exit

33:                                               ; preds = %20
  %34 = icmp samesign ugt i32 %15, 1199566847
  br i1 %34, label %35, label %37, !prof !9

35:                                               ; preds = %33
  %36 = or disjoint i16 %18, 31744
  br label %_ZN9Imath_3_24halfC2Ef.exit

37:                                               ; preds = %33
  %38 = add nuw nsw i32 %15, 134221823
  %39 = lshr i32 %15, 13
  %40 = and i32 %39, 1
  %41 = add nuw nsw i32 %38, %40
  %42 = lshr i32 %41, 13
  %43 = and i32 %16, 32768
  %44 = or i32 %42, %43
  %45 = trunc i32 %44 to i16
  br label %_ZN9Imath_3_24halfC2Ef.exit

46:                                               ; preds = %13
  %47 = icmp samesign ult i32 %15, 855638017
  br i1 %47, label %_ZN9Imath_3_24halfC2Ef.exit, label %48

48:                                               ; preds = %46
  %49 = lshr i32 %15, 23
  %50 = sub nuw nsw i32 126, %49
  %51 = and i32 %15, 8388607
  %52 = or disjoint i32 %51, 8388608
  %53 = add nsw i32 %49, -94
  %54 = shl i32 %52, %53
  %55 = lshr i32 %52, %50
  %56 = and i32 %16, 32768
  %57 = or i32 %55, %56
  %58 = trunc nuw i32 %57 to i16
  %59 = icmp ugt i32 %54, -2147483648
  br i1 %59, label %63, label %60

60:                                               ; preds = %48
  %61 = icmp ne i32 %54, -2147483648
  %62 = and i32 %55, 1
  %.not.i.i = icmp eq i32 %62, 0
  %or.cond.i.i = select i1 %61, i1 true, i1 %.not.i.i
  br i1 %or.cond.i.i, label %_ZN9Imath_3_24halfC2Ef.exit, label %63

63:                                               ; preds = %60, %48
  %64 = add nuw i16 %58, 1
  br label %_ZN9Imath_3_24halfC2Ef.exit

_ZN9Imath_3_24halfC2Ef.exit:                      ; preds = %63, %60, %46, %37, %35, %25, %22, %9, %4
  %.sroa.05.0 = phi i16 [ 31744, %4 ], [ -1024, %9 ], [ %32, %25 ], [ %36, %35 ], [ %45, %37 ], [ %23, %22 ], [ %18, %46 ], [ %64, %63 ], [ %58, %60 ]
  ret i16 %.sroa.05.0
}